target datalayout = "e-m:e-p270:32:32-p271:32:32-p272:64:64-i64:64-i128:128-f80:128-n8:16:32:64-S128"
target triple = "x86_64-pc-linux-gnu"

%struct.NSVGrasterizer = type { float, float, float, float, ptr, i32, i32, ptr, i32, i32, ptr, i32, i32, ptr, ptr, ptr, ptr, i32, ptr, i32, i32, i32 }
%struct.NSVGpoint = type { float, float, float, float, float, float, float, i8 }

; Function Attrs: nounwind uwtable
define internal i32 @nsvg__ptEquals(float noundef %0, float noundef %1, float noundef %2, float noundef %3, float noundef %4) #0 {
  %6 = alloca float, align 4
  %7 = alloca float, align 4
  %8 = alloca float, align 4
  %9 = alloca float, align 4
  %10 = alloca float, align 4
  %11 = alloca float, align 4
  %12 = alloca float, align 4
  store float %0, ptr %6, align 4, !tbaa !23
  store float %1, ptr %7, align 4, !tbaa !23
  store float %2, ptr %8, align 4, !tbaa !23
  store float %3, ptr %9, align 4, !tbaa !23
  store float %4, ptr %10, align 4, !tbaa !23
  call void @llvm.lifetime.start.p0(i64 4, ptr %11) #11
  %13 = load float, ptr %8, align 4, !tbaa !23
  %14 = load float, ptr %6, align 4, !tbaa !23
  %15 = fsub float %13, %14
  store float %15, ptr %11, align 4, !tbaa !23
  call void @llvm.lifetime.start.p0(i64 4, ptr %12) #11
  %16 = load float, ptr %9, align 4, !tbaa !23
  %17 = load float, ptr %7, align 4, !tbaa !23
  %18 = fsub float %16, %17
  store float %18, ptr %12, align 4, !tbaa !23
  %19 = load float, ptr %11, align 4, !tbaa !23
  %20 = load float, ptr %11, align 4, !tbaa !23
  %21 = load float, ptr %12, align 4, !tbaa !23
  %22 = load float, ptr %12, align 4, !tbaa !23
  %23 = fmul float %21, %22
  %24 = call float @llvm.fmuladd.f32(float %19, float %20, float %23)
  %25 = load float, ptr %10, align 4, !tbaa !23
  %26 = load float, ptr %10, align 4, !tbaa !23
  %27 = fmul float %25, %26
  %28 = fcmp olt float %24, %27
  %29 = zext i1 %28 to i32
  call void @llvm.lifetime.end.p0(i64 4, ptr %12) #11
  call void @llvm.lifetime.end.p0(i64 4, ptr %11) #11
  ret i32 %29
}

; Function Attrs: nounwind uwtable
define internal void @nsvg__addPathPoint(ptr noundef %0, float noundef %1, float noundef %2, i32 noundef %3) #0 {
  %5 = alloca ptr, align 8
  %6 = alloca float, align 4
  %7 = alloca float, align 4
  %8 = alloca i32, align 4
  %9 = alloca ptr, align 8
  %10 = alloca i32, align 4
  store ptr %0, ptr %5, align 8, !tbaa !99
  store float %1, ptr %6, align 4, !tbaa !23
  store float %2, ptr %7, align 4, !tbaa !23
  store i32 %3, ptr %8, align 4, !tbaa !10
  call void @llvm.lifetime.start.p0(i64 8, ptr %9) #11
  %11 = load ptr, ptr %5, align 8, !tbaa !99
  %12 = getelementptr inbounds nuw %struct.NSVGrasterizer, ptr %11, i32 0, i32 8
  %13 = load i32, ptr %12, align 8, !tbaa !140
  %14 = icmp sgt i32 %13, 0
  br i1 %14, label %15, label %49

15:                                               ; preds = %4
  %16 = load ptr, ptr %5, align 8, !tbaa !99
  %17 = getelementptr inbounds nuw %struct.NSVGrasterizer, ptr %16, i32 0, i32 7
  %18 = load ptr, ptr %17, align 8, !tbaa !114
  %19 = load ptr, ptr %5, align 8, !tbaa !99
  %20 = getelementptr inbounds nuw %struct.NSVGrasterizer, ptr %19, i32 0, i32 8
  %21 = load i32, ptr %20, align 8, !tbaa !140
  %22 = sub nsw i32 %21, 1
  %23 = sext i32 %22 to i64
  %24 = getelementptr inbounds %struct.NSVGpoint, ptr %18, i64 %23
  store ptr %24, ptr %9, align 8, !tbaa !184
  %25 = load ptr, ptr %9, align 8, !tbaa !184
  %26 = getelementptr inbounds nuw %struct.NSVGpoint, ptr %25, i32 0, i32 0
  %27 = load float, ptr %26, align 4, !tbaa !142
  %28 = load ptr, ptr %9, align 8, !tbaa !184
  %29 = getelementptr inbounds nuw %struct.NSVGpoint, ptr %28, i32 0, i32 1
  %30 = load float, ptr %29, align 4, !tbaa !144
  %31 = load float, ptr %6, align 4, !tbaa !23
  %32 = load float, ptr %7, align 4, !tbaa !23
  %33 = load ptr, ptr %5, align 8, !tbaa !99
  %34 = getelementptr inbounds nuw %struct.NSVGrasterizer, ptr %33, i32 0, i32 3
  %35 = load float, ptr %34, align 4, !tbaa !107
  %36 = call i32 @nsvg__ptEquals(float noundef %27, float noundef %30, float noundef %31, float noundef %32, float noundef %35)
  %37 = icmp ne i32 %36, 0
  br i1 %37, label %38, label %48

38:                                               ; preds = %15
  %39 = load ptr, ptr %9, align 8, !tbaa !184
  %40 = getelementptr inbounds nuw %struct.NSVGpoint, ptr %39, i32 0, i32 7
  %41 = load i8, ptr %40, align 4, !tbaa !189
  %42 = zext i8 %41 to i32
  %43 = load i32, ptr %8, align 4, !tbaa !10
  %44 = or i32 %42, %43
  %45 = trunc i32 %44 to i8
  %46 = load ptr, ptr %9, align 8, !tbaa !184
  %47 = getelementptr inbounds nuw %struct.NSVGpoint, ptr %46, i32 0, i32 7
  store i8 %45, ptr %47, align 4, !tbaa !189
  store i32 1, ptr %10, align 4
  br label %113

48:                                               ; preds = %15
  br label %49

49:                                               ; preds = %48, %4
  %50 = load ptr, ptr %5, align 8, !tbaa !99
  %51 = getelementptr inbounds nuw %struct.NSVGrasterizer, ptr %50, i32 0, i32 8
  %52 = load i32, ptr %51, align 8, !tbaa !140
  %53 = add nsw i32 %52, 1
  %54 = load ptr, ptr %5, align 8, !tbaa !99
  %55 = getelementptr inbounds nuw %struct.NSVGrasterizer, ptr %54, i32 0, i32 9
  %56 = load i32, ptr %55, align 4, !tbaa !293
  %57 = icmp sgt i32 %53, %56
  br i1 %57, label %58, label %90

58:                                               ; preds = %49
  %59 = load ptr, ptr %5, align 8, !tbaa !99
  %60 = getelementptr inbounds nuw %struct.NSVGrasterizer, ptr %59, i32 0, i32 9
  %61 = load i32, ptr %60, align 4, !tbaa !293
  %62 = icmp sgt i32 %61, 0
  br i1 %62, label %63, label %68

63:                                               ; preds = %58
  %64 = load ptr, ptr %5, align 8, !tbaa !99
  %65 = getelementptr inbounds nuw %struct.NSVGrasterizer, ptr %64, i32 0, i32 9
  %66 = load i32, ptr %65, align 4, !tbaa !293
  %67 = mul nsw i32 %66, 2
  br label %69

68:                                               ; preds = %58
  br label %69

69:                                               ; preds = %68, %63
  %70 = phi i32 [ %67, %63 ], [ 64, %68 ]
  %71 = load ptr, ptr %5, align 8, !tbaa !99
  %72 = getelementptr inbounds nuw %struct.NSVGrasterizer, ptr %71, i32 0, i32 9
  store i32 %70, ptr %72, align 4, !tbaa !293
  %73 = load ptr, ptr %5, align 8, !tbaa !99
  %74 = getelementptr inbounds nuw %struct.NSVGrasterizer, ptr %73, i32 0, i32 7
  %75 = load ptr, ptr %74, align 8, !tbaa !114
  %76 = load ptr, ptr %5, align 8, !tbaa !99
  %77 = getelementptr inbounds nuw %struct.NSVGrasterizer, ptr %76, i32 0, i32 9
  %78 = load i32, ptr %77, align 4, !tbaa !293
  %79 = sext i32 %78 to i64
  %80 = mul i64 32, %79
  %81 = call ptr @realloc(ptr noundef %75, i64 noundef %80) #14
  %82 = load ptr, ptr %5, align 8, !tbaa !99
  %83 = getelementptr inbounds nuw %struct.NSVGrasterizer, ptr %82, i32 0, i32 7
  store ptr %81, ptr %83, align 8, !tbaa !114
  %84 = load ptr, ptr %5, align 8, !tbaa !99
  %85 = getelementptr inbounds nuw %struct.NSVGrasterizer, ptr %84, i32 0, i32 7
  %86 = load ptr, ptr %85, align 8, !tbaa !114
  %87 = icmp eq ptr %86, null
  br i1 %87, label %88, label %89

88:                                               ; preds = %69
  store i32 1, ptr %10, align 4
  br label %113

89:                                               ; preds = %69
  br label %90

90:                                               ; preds = %89, %49
  %91 = load ptr, ptr %5, align 8, !tbaa !99
  %92 = getelementptr inbounds nuw %struct.NSVGrasterizer, ptr %91, i32 0, i32 7
  %93 = load ptr, ptr %92, align 8, !tbaa !114
  %94 = load ptr, ptr %5, align 8, !tbaa !99
  %95 = getelementptr inbounds nuw %struct.NSVGrasterizer, ptr %94, i32 0, i32 8
  %96 = load i32, ptr %95, align 8, !tbaa !140
  %97 = sext i32 %96 to i64
  %98 = getelementptr inbounds %struct.NSVGpoint, ptr %93, i64 %97
  store ptr %98, ptr %9, align 8, !tbaa !184
  %99 = load float, ptr %6, align 4, !tbaa !23
  %100 = load ptr, ptr %9, align 8, !tbaa !184
  %101 = getelementptr inbounds nuw %struct.NSVGpoint, ptr %100, i32 0, i32 0
  store float %99, ptr %101, align 4, !tbaa !142
  %102 = load float, ptr %7, align 4, !tbaa !23
  %103 = load ptr, ptr %9, align 8, !tbaa !184
  %104 = getelementptr inbounds nuw %struct.NSVGpoint, ptr %103, i32 0, i32 1
  store float %102, ptr %104, align 4, !tbaa !144
  %105 = load i32, ptr %8, align 4, !tbaa !10
  %106 = trunc i32 %105 to i8
  %107 = load ptr, ptr %9, align 8, !tbaa !184
  %108 = getelementptr inbounds nuw %struct.NSVGpoint, ptr %107, i32 0, i32 7
  store i8 %106, ptr %108, align 4, !tbaa !189
  %109 = load ptr, ptr %5, align 8, !tbaa !99
  %110 = getelementptr inbounds nuw %struct.NSVGrasterizer, ptr %109, i32 0, i32 8
  %111 = load i32, ptr %110, align 8, !tbaa !140
  %112 = add nsw i32 %111, 1
  store i32 %112, ptr %110, align 8, !tbaa !140
  store i32 0, ptr %10, align 4
  br label %113

113:                                              ; preds = %90, %88, %38
  call void @llvm.lifetime.end.p0(i64 8, ptr %9) #11
  %114 = load i32, ptr %10, align 4
  switch i32 %114, label %116 [
    i32 0, label %115
    i32 1, label %115
  ]

115:                                              ; preds = %113, %113
  ret void

116:                                              ; preds = %113
  unreachable
}

; Function Attrs: nounwind uwtable
define internal float @nsvg__absf(float noundef %0) #0 {
  %2 = alloca float, align 4
  store float %0, ptr %2, align 4, !tbaa !23
  %3 = load float, ptr %2, align 4, !tbaa !23
  %4 = fcmp olt float %3, 0.000000e+00
  br i1 %4, label %5, label %8

5:                                                ; preds = %1
  %6 = load float, ptr %2, align 4, !tbaa !23
  %7 = fneg float %6
  br label %10

8:                                                ; preds = %1
  %9 = load float, ptr %2, align 4, !tbaa !23
  br label %10

10:                                               ; preds = %8, %5
  %11 = phi float [ %7, %5 ], [ %9, %8 ]
  ret float %11
}

; Function Attrs: nounwind uwtable
define internal void @nsvg__flattenCubicBez(ptr noundef %0, float noundef %1, float noundef %2, float noundef %3, float noundef %4, float noundef %5, float noundef %6, float noundef %7, float noundef %8, i32 noundef %9, i32 noundef %10) #0 {
  %12 = alloca ptr, align 8
  %13 = alloca float, align 4
  %14 = alloca float, align 4
  %15 = alloca float, align 4
  %16 = alloca float, align 4
  %17 = alloca float, align 4
  %18 = alloca float, align 4
  %19 = alloca float, align 4
  %20 = alloca float, align 4
  %21 = alloca i32, align 4
  %22 = alloca i32, align 4
  %23 = alloca float, align 4
  %24 = alloca float, align 4
  %25 = alloca float, align 4
  %26 = alloca float, align 4
  %27 = alloca float, align 4
  %28 = alloca float, align 4
  %29 = alloca float, align 4
  %30 = alloca float, align 4
  %31 = alloca float, align 4
  %32 = alloca float, align 4
  %33 = alloca float, align 4
  %34 = alloca float, align 4
  %35 = alloca float, align 4
  %36 = alloca float, align 4
  %37 = alloca float, align 4
  %38 = alloca float, align 4
  %39 = alloca i32, align 4
  store ptr %0, ptr %12, align 8, !tbaa !99
  store float %1, ptr %13, align 4, !tbaa !23
  store float %2, ptr %14, align 4, !tbaa !23
  store float %3, ptr %15, align 4, !tbaa !23
  store float %4, ptr %16, align 4, !tbaa !23
  store float %5, ptr %17, align 4, !tbaa !23
  store float %6, ptr %18, align 4, !tbaa !23
  store float %7, ptr %19, align 4, !tbaa !23
  store float %8, ptr %20, align 4, !tbaa !23
  store i32 %9, ptr %21, align 4, !tbaa !10
  store i32 %10, ptr %22, align 4, !tbaa !10
  call void @llvm.lifetime.start.p0(i64 4, ptr %23) #11
  call void @llvm.lifetime.start.p0(i64 4, ptr %24) #11
  call void @llvm.lifetime.start.p0(i64 4, ptr %25) #11
  call void @llvm.lifetime.start.p0(i64 4, ptr %26) #11
  call void @llvm.lifetime.start.p0(i64 4, ptr %27) #11
  call void @llvm.lifetime.start.p0(i64 4, ptr %28) #11
  call void @llvm.lifetime.start.p0(i64 4, ptr %29) #11
  call void @llvm.lifetime.start.p0(i64 4, ptr %30) #11
  call void @llvm.lifetime.start.p0(i64 4, ptr %31) #11
  call void @llvm.lifetime.start.p0(i64 4, ptr %32) #11
  call void @llvm.lifetime.start.p0(i64 4, ptr %33) #11
  call void @llvm.lifetime.start.p0(i64 4, ptr %34) #11
  call void @llvm.lifetime.start.p0(i64 4, ptr %35) #11
  call void @llvm.lifetime.start.p0(i64 4, ptr %36) #11
  call void @llvm.lifetime.start.p0(i64 4, ptr %37) #11
  call void @llvm.lifetime.start.p0(i64 4, ptr %38) #11
  %40 = load i32, ptr %21, align 4, !tbaa !10
  %41 = icmp sgt i32 %40, 10
  br i1 %41, label %42, label %43

42:                                               ; preds = %11
  store i32 1, ptr %39, align 4
  br label %169

43:                                               ; preds = %11
  %44 = load float, ptr %13, align 4, !tbaa !23
  %45 = load float, ptr %15, align 4, !tbaa !23
  %46 = fadd float %44, %45
  %47 = fmul float %46, 5.000000e-01
  store float %47, ptr %23, align 4, !tbaa !23
  %48 = load float, ptr %14, align 4, !tbaa !23
  %49 = load float, ptr %16, align 4, !tbaa !23
  %50 = fadd float %48, %49
  %51 = fmul float %50, 5.000000e-01
  store float %51, ptr %24, align 4, !tbaa !23
  %52 = load float, ptr %15, align 4, !tbaa !23
  %53 = load float, ptr %17, align 4, !tbaa !23
  %54 = fadd float %52, %53
  %55 = fmul float %54, 5.000000e-01
  store float %55, ptr %25, align 4, !tbaa !23
  %56 = load float, ptr %16, align 4, !tbaa !23
  %57 = load float, ptr %18, align 4, !tbaa !23
  %58 = fadd float %56, %57
  %59 = fmul float %58, 5.000000e-01
  store float %59, ptr %26, align 4, !tbaa !23
  %60 = load float, ptr %17, align 4, !tbaa !23
  %61 = load float, ptr %19, align 4, !tbaa !23
  %62 = fadd float %60, %61
  %63 = fmul float %62, 5.000000e-01
  store float %63, ptr %27, align 4, !tbaa !23
  %64 = load float, ptr %18, align 4, !tbaa !23
  %65 = load float, ptr %20, align 4, !tbaa !23
  %66 = fadd float %64, %65
  %67 = fmul float %66, 5.000000e-01
  store float %67, ptr %28, align 4, !tbaa !23
  %68 = load float, ptr %23, align 4, !tbaa !23
  %69 = load float, ptr %25, align 4, !tbaa !23
  %70 = fadd float %68, %69
  %71 = fmul float %70, 5.000000e-01
  store float %71, ptr %29, align 4, !tbaa !23
  %72 = load float, ptr %24, align 4, !tbaa !23
  %73 = load float, ptr %26, align 4, !tbaa !23
  %74 = fadd float %72, %73
  %75 = fmul float %74, 5.000000e-01
  store float %75, ptr %30, align 4, !tbaa !23
  %76 = load float, ptr %19, align 4, !tbaa !23
  %77 = load float, ptr %13, align 4, !tbaa !23
  %78 = fsub float %76, %77
  store float %78, ptr %35, align 4, !tbaa !23
  %79 = load float, ptr %20, align 4, !tbaa !23
  %80 = load float, ptr %14, align 4, !tbaa !23
  %81 = fsub float %79, %80
  store float %81, ptr %36, align 4, !tbaa !23
  %82 = load float, ptr %15, align 4, !tbaa !23
  %83 = load float, ptr %19, align 4, !tbaa !23
  %84 = fsub float %82, %83
  %85 = load float, ptr %36, align 4, !tbaa !23
  %86 = load float, ptr %16, align 4, !tbaa !23
  %87 = load float, ptr %20, align 4, !tbaa !23
  %88 = fsub float %86, %87
  %89 = load float, ptr %35, align 4, !tbaa !23
  %90 = fmul float %88, %89
  %91 = fneg float %90
  %92 = call float @llvm.fmuladd.f32(float %84, float %85, float %91)
  %93 = call float @nsvg__absf(float noundef %92)
  store float %93, ptr %37, align 4, !tbaa !23
  %94 = load float, ptr %17, align 4, !tbaa !23
  %95 = load float, ptr %19, align 4, !tbaa !23
  %96 = fsub float %94, %95
  %97 = load float, ptr %36, align 4, !tbaa !23
  %98 = load float, ptr %18, align 4, !tbaa !23
  %99 = load float, ptr %20, align 4, !tbaa !23
  %100 = fsub float %98, %99
  %101 = load float, ptr %35, align 4, !tbaa !23
  %102 = fmul float %100, %101
  %103 = fneg float %102
  %104 = call float @llvm.fmuladd.f32(float %96, float %97, float %103)
  %105 = call float @nsvg__absf(float noundef %104)
  store float %105, ptr %38, align 4, !tbaa !23
  %106 = load float, ptr %37, align 4, !tbaa !23
  %107 = load float, ptr %38, align 4, !tbaa !23
  %108 = fadd float %106, %107
  %109 = load float, ptr %37, align 4, !tbaa !23
  %110 = load float, ptr %38, align 4, !tbaa !23
  %111 = fadd float %109, %110
  %112 = fmul float %108, %111
  %113 = load ptr, ptr %12, align 8, !tbaa !99
  %114 = getelementptr inbounds nuw %struct.NSVGrasterizer, ptr %113, i32 0, i32 2
  %115 = load float, ptr %114, align 8, !tbaa !101
  %116 = load float, ptr %35, align 4, !tbaa !23
  %117 = load float, ptr %35, align 4, !tbaa !23
  %118 = load float, ptr %36, align 4, !tbaa !23
  %119 = load float, ptr %36, align 4, !tbaa !23
  %120 = fmul float %118, %119
  %121 = call float @llvm.fmuladd.f32(float %116, float %117, float %120)
  %122 = fmul float %115, %121
  %123 = fcmp olt float %112, %122
  br i1 %123, label %124, label %129

124:                                              ; preds = %43
  %125 = load ptr, ptr %12, align 8, !tbaa !99
  %126 = load float, ptr %19, align 4, !tbaa !23
  %127 = load float, ptr %20, align 4, !tbaa !23
  %128 = load i32, ptr %22, align 4, !tbaa !10
  call void @nsvg__addPathPoint(ptr noundef %125, float noundef %126, float noundef %127, i32 noundef %128)
  store i32 1, ptr %39, align 4
  br label %169

129:                                              ; preds = %43
  %130 = load float, ptr %25, align 4, !tbaa !23
  %131 = load float, ptr %27, align 4, !tbaa !23
  %132 = fadd float %130, %131
  %133 = fmul float %132, 5.000000e-01
  store float %133, ptr %31, align 4, !tbaa !23
  %134 = load float, ptr %26, align 4, !tbaa !23
  %135 = load float, ptr %28, align 4, !tbaa !23
  %136 = fadd float %134, %135
  %137 = fmul float %136, 5.000000e-01
  store float %137, ptr %32, align 4, !tbaa !23
  %138 = load float, ptr %29, align 4, !tbaa !23
  %139 = load float, ptr %31, align 4, !tbaa !23
  %140 = fadd float %138, %139
  %141 = fmul float %140, 5.000000e-01
  store float %141, ptr %33, align 4, !tbaa !23
  %142 = load float, ptr %30, align 4, !tbaa !23
  %143 = load float, ptr %32, align 4, !tbaa !23
  %144 = fadd float %142, %143
  %145 = fmul float %144, 5.000000e-01
  store float %145, ptr %34, align 4, !tbaa !23
  %146 = load ptr, ptr %12, align 8, !tbaa !99
  %147 = load float, ptr %13, align 4, !tbaa !23
  %148 = load float, ptr %14, align 4, !tbaa !23
  %149 = load float, ptr %23, align 4, !tbaa !23
  %150 = load float, ptr %24, align 4, !tbaa !23
  %151 = load float, ptr %29, align 4, !tbaa !23
  %152 = load float, ptr %30, align 4, !tbaa !23
  %153 = load float, ptr %33, align 4, !tbaa !23
  %154 = load float, ptr %34, align 4, !tbaa !23
  %155 = load i32, ptr %21, align 4, !tbaa !10
  %156 = add nsw i32 %155, 1
  call void @nsvg__flattenCubicBez(ptr noundef %146, float noundef %147, float noundef %148, float noundef %149, float noundef %150, float noundef %151, float noundef %152, float noundef %153, float noundef %154, i32 noundef %156, i32 noundef 0)
  %157 = load ptr, ptr %12, align 8, !tbaa !99
  %158 = load float, ptr %33, align 4, !tbaa !23
  %159 = load float, ptr %34, align 4, !tbaa !23
  %160 = load float, ptr %31, align 4, !tbaa !23
  %161 = load float, ptr %32, align 4, !tbaa !23
  %162 = load float, ptr %27, align 4, !tbaa !23
  %163 = load float, ptr %28, align 4, !tbaa !23
  %164 = load float, ptr %19, align 4, !tbaa !23
  %165 = load float, ptr %20, align 4, !tbaa !23
  %166 = load i32, ptr %21, align 4, !tbaa !10
  %167 = add nsw i32 %166, 1
  %168 = load i32, ptr %22, align 4, !tbaa !10
  call void @nsvg__flattenCubicBez(ptr noundef %157, float noundef %158, float noundef %159, float noundef %160, float noundef %161, float noundef %162, float noundef %163, float noundef %164, float noundef %165, i32 noundef %167, i32 noundef %168)
  store i32 0, ptr %39, align 4
  br label %169

169:                                              ; preds = %129, %124, %42
  call void @llvm.lifetime.end.p0(i64 4, ptr %38) #11
  call void @llvm.lifetime.end.p0(i64 4, ptr %37) #11
  call void @llvm.lifetime.end.p0(i64 4, ptr %36) #11
  call void @llvm.lifetime.end.p0(i64 4, ptr %35) #11
  call void @llvm.lifetime.end.p0(i64 4, ptr %34) #11
  call void @llvm.lifetime.end.p0(i64 4, ptr %33) #11
  call void @llvm.lifetime.end.p0(i64 4, ptr %32) #11
  call void @llvm.lifetime.end.p0(i64 4, ptr %31) #11
  call void @llvm.lifetime.end.p0(i64 4, ptr %30) #11
  call void @llvm.lifetime.end.p0(i64 4, ptr %29) #11
  call void @llvm.lifetime.end.p0(i64 4, ptr %28) #11
  call void @llvm.lifetime.end.p0(i64 4, ptr %27) #11
  call void @llvm.lifetime.end.p0(i64 4, ptr %26) #11
  call void @llvm.lifetime.end.p0(i64 4, ptr %25) #11
  call void @llvm.lifetime.end.p0(i64 4, ptr %24) #11
  call void @llvm.lifetime.end.p0(i64 4, ptr %23) #11
  %170 = load i32, ptr %39, align 4
  switch i32 %170, label %172 [
    i32 0, label %171
    i32 1, label %171
  ]

171:                                              ; preds = %169, %169
  ret void

172:                                              ; preds = %169
  unreachable
}