; Function Attrs: nounwind uwtable
define internal fastcc void @nsvg__flattenCubicBez(ptr noundef captures(none) %0, float noundef %1, float noundef %2, float noundef %3, float noundef %4, float noundef %5, float noundef %6, float noundef %7, float noundef %8, i32 noundef %9, i32 noundef range(i32 0, 2) %10) unnamed_addr #0 {
  %12 = icmp sgt i32 %9, 10
  br i1 %12, label %nsvg__addPathPoint.exit, label %.lr.ph

.lr.ph:                                           ; preds = %11
  %13 = getelementptr inbounds nuw i8, ptr %0, i64 8
  br label %14

14:                                               ; preds = %.lr.ph, %tailrecurse
  %.tr8290 = phi i32 [ %9, %.lr.ph ], [ %110, %tailrecurse ]
  %.tr7989 = phi float [ %6, %.lr.ph ], [ %99, %tailrecurse ]
  %.tr7888 = phi float [ %5, %.lr.ph ], [ %101, %tailrecurse ]
  %.tr7787 = phi float [ %4, %.lr.ph ], [ %105, %tailrecurse ]
  %.tr7686 = phi float [ %3, %.lr.ph ], [ %103, %tailrecurse ]
  %.tr7585 = phi float [ %2, %.lr.ph ], [ %109, %tailrecurse ]
  %.tr7484 = phi float [ %1, %.lr.ph ], [ %107, %tailrecurse ]
  %15 = fsub float %7, %.tr7484
  %16 = fsub float %8, %.tr7585
  %17 = fsub float %.tr7686, %7
  %18 = fsub float %.tr7787, %8
  %19 = fneg float %15
  %20 = fmul float %18, %19
  %21 = tail call float @llvm.fmuladd.f32(float %17, float %16, float %20)
  %22 = fcmp olt float %21, 0.000000e+00
  %23 = fneg float %21
  %24 = select i1 %22, float %23, float %21
  %25 = fsub float %.tr7888, %7
  %26 = fsub float %.tr7989, %8
  %27 = fmul float %26, %19
  %28 = tail call float @llvm.fmuladd.f32(float %25, float %16, float %27)
  %29 = fcmp olt float %28, 0.000000e+00
  %30 = fneg float %28
  %31 = select i1 %29, float %30, float %28
  %32 = fadd float %24, %31
  %33 = fmul float %32, %32
  %34 = load float, ptr %13, align 8, !tbaa !98
  %35 = fmul float %16, %16
  %36 = tail call float @llvm.fmuladd.f32(float %15, float %15, float %35)
  %37 = fmul float %36, %34
  %38 = fcmp olt float %33, %37
  br i1 %38, label %39, label %tailrecurse

39:                                               ; preds = %14
  %40 = getelementptr inbounds nuw i8, ptr %0, i64 40
  %41 = load i32, ptr %40, align 8, !tbaa !126
  %42 = icmp sgt i32 %41, 0
  br i1 %42, label %43, label %65

43:                                               ; preds = %39
  %44 = getelementptr inbounds nuw i8, ptr %0, i64 32
  %45 = load ptr, ptr %44, align 8, !tbaa !110
  %46 = zext nneg i32 %41 to i64
  %47 = getelementptr %struct.NSVGpoint, ptr %45, i64 %46
  %48 = getelementptr i8, ptr %47, i64 -32
  %49 = load float, ptr %48, align 4, !tbaa !128
  %50 = getelementptr i8, ptr %47, i64 -28
  %51 = load float, ptr %50, align 4, !tbaa !130
  %52 = getelementptr inbounds nuw i8, ptr %0, i64 12
  %53 = load float, ptr %52, align 4, !tbaa !104
  %54 = fsub float %7, %49
  %55 = fsub float %8, %51
  %56 = fmul float %55, %55
  %57 = tail call float @llvm.fmuladd.f32(float %54, float %54, float %56)
  %58 = fmul float %53, %53
  %59 = fcmp uge float %57, %58
  br i1 %59, label %65, label %60

60:                                               ; preds = %43
  %61 = getelementptr i8, ptr %47, i64 -4
  %62 = load i8, ptr %61, align 4, !tbaa !131
  %63 = trunc nuw nsw i32 %10 to i8
  %64 = or i8 %62, %63
  store i8 %64, ptr %61, align 4, !tbaa !131
  br label %nsvg__addPathPoint.exit

65:                                               ; preds = %43, %39
  %66 = getelementptr inbounds nuw i8, ptr %0, i64 44
  %67 = load i32, ptr %66, align 4, !tbaa !127
  %.not29.i = icmp slt i32 %41, %67
  br i1 %.not29.i, label %._crit_edge.i, label %68

._crit_edge.i:                                    ; preds = %65
  %.phi.trans.insert.i = getelementptr inbounds nuw i8, ptr %0, i64 32
  %.pre.i = load ptr, ptr %.phi.trans.insert.i, align 8, !tbaa !110
  br label %77

68:                                               ; preds = %65
  %69 = icmp sgt i32 %67, 0
  %70 = shl nuw nsw i32 %67, 1
  %spec.select.i = select i1 %69, i32 %70, i32 64
  store i32 %spec.select.i, ptr %66, align 4, !tbaa !127
  %71 = getelementptr inbounds nuw i8, ptr %0, i64 32
  %72 = load ptr, ptr %71, align 8, !tbaa !110
  %73 = zext nneg i32 %spec.select.i to i64
  %74 = shl nuw nsw i64 %73, 5
  %75 = tail call ptr @realloc(ptr noundef %72, i64 noundef %74) #33
  store ptr %75, ptr %71, align 8, !tbaa !110
  %76 = icmp eq ptr %75, null
  br i1 %76, label %nsvg__addPathPoint.exit, label %._crit_edge30.i

._crit_edge30.i:                                  ; preds = %68
  %.pre31.i = load i32, ptr %40, align 8, !tbaa !126
  br label %77

77:                                               ; preds = %._crit_edge30.i, %._crit_edge.i
  %78 = phi i32 [ %41, %._crit_edge.i ], [ %.pre31.i, %._crit_edge30.i ]
  %79 = phi ptr [ %.pre.i, %._crit_edge.i ], [ %75, %._crit_edge30.i ]
  %80 = sext i32 %78 to i64
  %81 = getelementptr inbounds %struct.NSVGpoint, ptr %79, i64 %80
  store float %7, ptr %81, align 4, !tbaa !128
  %82 = getelementptr inbounds nuw i8, ptr %81, i64 4
  store float %8, ptr %82, align 4, !tbaa !130
  %83 = trunc nuw nsw i32 %10 to i8
  %84 = getelementptr inbounds nuw i8, ptr %81, i64 28
  store i8 %83, ptr %84, align 4, !tbaa !131
  %85 = add nsw i32 %78, 1
  store i32 %85, ptr %40, align 8, !tbaa !126
  br label %nsvg__addPathPoint.exit

tailrecurse:                                      ; preds = %14
  %86 = fadd float %.tr7585, %.tr7787
  %87 = fmul float %86, 5.000000e-01
  %88 = fadd float %.tr7787, %.tr7989
  %89 = fmul float %88, 5.000000e-01
  %90 = fadd float %87, %89
  %91 = fmul float %90, 5.000000e-01
  %92 = fadd float %.tr7484, %.tr7686
  %93 = fmul float %92, 5.000000e-01
  %94 = fadd float %.tr7686, %.tr7888
  %95 = fmul float %94, 5.000000e-01
  %96 = fadd float %93, %95
  %97 = fmul float %96, 5.000000e-01
  %98 = fadd float %8, %.tr7989
  %99 = fmul float %98, 5.000000e-01
  %100 = fadd float %7, %.tr7888
  %101 = fmul float %100, 5.000000e-01
  %102 = fadd float %95, %101
  %103 = fmul float %102, 5.000000e-01
  %104 = fadd float %89, %99
  %105 = fmul float %104, 5.000000e-01
  %106 = fadd float %97, %103
  %107 = fmul float %106, 5.000000e-01
  %108 = fadd float %91, %105
  %109 = fmul float %108, 5.000000e-01
  %110 = add i32 %.tr8290, 1
  tail call fastcc void @nsvg__flattenCubicBez(ptr noundef nonnull %0, float noundef %.tr7484, float noundef %.tr7585, float noundef %93, float noundef %87, float noundef %97, float noundef %91, float noundef %107, float noundef %109, i32 noundef %110, i32 noundef 0)
  %exitcond = icmp eq i32 %110, 11
  br i1 %exitcond, label %nsvg__addPathPoint.exit, label %14

nsvg__addPathPoint.exit:                          ; preds = %tailrecurse, %11, %77, %68, %60
  ret void
}